target datalayout = "e-m:e-p270:32:32-p271:32:32-p272:64:64-i64:64-i128:128-f80:128-n8:16:32:64-S128"
target triple = "x86_64-pc-linux-gnu"

%struct.AVAudioFifo = type { ptr, i32, i32, i32, i32, i32, i32 }

; Function Attrs: nounwind uwtable
define void @av_audio_fifo_free(ptr noundef %0) #0 {
  %2 = alloca ptr, align 8
  %3 = alloca i32, align 4
  store ptr %0, ptr %2, align 8, !tbaa !4
  %4 = load ptr, ptr %2, align 8, !tbaa !4
  %5 = icmp ne ptr %4, null
  br i1 %5, label %6, label %33

6:                                                ; preds = %1
  %7 = load ptr, ptr %2, align 8, !tbaa !4
  %8 = getelementptr inbounds nuw %struct.AVAudioFifo, ptr %7, i32 0, i32 0
  %9 = load ptr, ptr %8, align 8, !tbaa !9
  %10 = icmp ne ptr %9, null
  br i1 %10, label %11, label %31

11:                                               ; preds = %6
  call void @llvm.lifetime.start.p0(i64 4, ptr %3) #3
  store i32 0, ptr %3, align 4, !tbaa !14
  br label %12

12:                                               ; preds = %25, %11
  %13 = load i32, ptr %3, align 4, !tbaa !14
  %14 = load ptr, ptr %2, align 8, !tbaa !4
  %15 = getelementptr inbounds nuw %struct.AVAudioFifo, ptr %14, i32 0, i32 1
  %16 = load i32, ptr %15, align 8, !tbaa !15
  %17 = icmp slt i32 %13, %16
  br i1 %17, label %18, label %28

18:                                               ; preds = %12
  %19 = load ptr, ptr %2, align 8, !tbaa !4
  %20 = getelementptr inbounds nuw %struct.AVAudioFifo, ptr %19, i32 0, i32 0
  %21 = load ptr, ptr %20, align 8, !tbaa !9
  %22 = load i32, ptr %3, align 4, !tbaa !14
  %23 = sext i32 %22 to i64
  %24 = getelementptr inbounds ptr, ptr %21, i64 %23
  call void @av_fifo_freep2(ptr noundef %24)
  br label %25

25:                                               ; preds = %18
  %26 = load i32, ptr %3, align 4, !tbaa !14
  %27 = add nsw i32 %26, 1
  store i32 %27, ptr %3, align 4, !tbaa !14
  br label %12, !llvm.loop !16

28:                                               ; preds = %12
  %29 = load ptr, ptr %2, align 8, !tbaa !4
  %30 = getelementptr inbounds nuw %struct.AVAudioFifo, ptr %29, i32 0, i32 0
  call void @av_freep(ptr noundef %30)
  call void @llvm.lifetime.end.p0(i64 4, ptr %3) #3
  br label %31

31:                                               ; preds = %28, %6
  %32 = load ptr, ptr %2, align 8, !tbaa !4
  call void @av_free(ptr noundef %32)
  br label %33

33:                                               ; preds = %31, %1
  ret void
}