; Function Attrs: nounwind uwtable
define void @av_audio_fifo_free(ptr noundef %0) local_unnamed_addr #0 {
  %.not = icmp eq ptr %0, null
  br i1 %.not, label %13, label %2

2:                                                ; preds = %1
  %3 = load ptr, ptr %0, align 8, !tbaa !4
  %.not9 = icmp eq ptr %3, null
  br i1 %.not9, label %12, label %.preheader

.preheader:                                       ; preds = %2
  %4 = getelementptr inbounds nuw i8, ptr %0, i64 8
  %5 = load i32, ptr %4, align 8, !tbaa !12
  %6 = icmp sgt i32 %5, 0
  br i1 %6, label %.lr.ph, label %._crit_edge

.lr.ph:                                           ; preds = %.preheader, %.lr.ph
  %indvars.iv = phi i64 [ %indvars.iv.next, %.lr.ph ], [ 0, %.preheader ]
  %7 = load ptr, ptr %0, align 8, !tbaa !4
  %8 = getelementptr inbounds nuw ptr, ptr %7, i64 %indvars.iv
  tail call void @av_fifo_freep2(ptr noundef %8) #5
  %indvars.iv.next = add nuw nsw i64 %indvars.iv, 1
  %9 = load i32, ptr %4, align 8, !tbaa !12
  %10 = sext i32 %9 to i64
  %11 = icmp slt i64 %indvars.iv.next, %10
  br i1 %11, label %.lr.ph, label %._crit_edge, !llvm.loop !13

._crit_edge:                                      ; preds = %.lr.ph, %.preheader
  tail call void @av_freep(ptr noundef nonnull %0) #5
  br label %12

12:                                               ; preds = %._crit_edge, %2
  tail call void @av_free(ptr noundef nonnull %0) #5
  br label %13

13:                                               ; preds = %12, %1
  ret void
}